target datalayout = "e-m:e-p270:32:32-p271:32:32-p272:64:64-i64:64-i128:128-f80:128-n8:16:32:64-S128"
target triple = "x86_64-unknown-linux-gnu"

%struct.VMStateDescription = type { ptr, i8, i8, i32, i32, i32, ptr, ptr, ptr, ptr, ptr, ptr, ptr, ptr }
%struct.AcpiBuildTables = type { ptr, ptr, ptr, ptr, ptr, ptr }
%struct.AcpiBuildState = type { ptr, ptr, ptr, i8 }
%struct.BIOSLinker = type { ptr, ptr }

@.str = private unnamed_addr constant [16 x i8] c"etc/acpi/tables\00", align 1
@.str.1 = private unnamed_addr constant [30 x i8] c"build_state->table_mr != NULL\00", align 1
@.str.2 = private unnamed_addr constant [35 x i8] c"../qemu/hw/riscv/virt-acpi-build.c\00", align 1
@__PRETTY_FUNCTION__.virt_acpi_setup = private unnamed_addr constant [39 x i8] c"void virt_acpi_setup(RISCVVirtState *)\00", align 1
@.str.3 = private unnamed_addr constant [17 x i8] c"etc/table-loader\00", align 1
@.str.4 = private unnamed_addr constant [14 x i8] c"etc/acpi/rsdp\00", align 1
@vmstate_virt_acpi_build = internal constant %struct.VMStateDescription { ptr @.str.25, i8 0, i8 0, i32 1, i32 1, i32 0, ptr null, ptr null, ptr null, ptr null, ptr null, ptr null, ptr @.compoundliteral, ptr null }, align 8

; Function Attrs: nounwind sspstrong uwtable
define internal i32 @vmstate_register(ptr noundef %obj, i32 noundef %instance_id, ptr noundef %vmsd, ptr noundef %opaque) #0 {
entry:
  %obj.addr = alloca ptr, align 8
  %instance_id.addr = alloca i32, align 4
  %vmsd.addr = alloca ptr, align 8
  %opaque.addr = alloca ptr, align 8
  store ptr %obj, ptr %obj.addr, align 8
  store i32 %instance_id, ptr %instance_id.addr, align 4
  store ptr %vmsd, ptr %vmsd.addr, align 8
  store ptr %opaque, ptr %opaque.addr, align 8
  %0 = load ptr, ptr %obj.addr, align 8
  %1 = load i32, ptr %instance_id.addr, align 4
  %2 = load ptr, ptr %vmsd.addr, align 8
  %3 = load ptr, ptr %opaque.addr, align 8
  %call = call i32 @vmstate_register_with_alias_id(ptr noundef %0, i32 noundef %1, ptr noundef %2, ptr noundef %3, i32 noundef -1, i32 noundef 0, ptr noundef null)
  ret i32 %call
}

; Function Attrs: nounwind sspstrong uwtable
define internal void @virt_acpi_build_reset(ptr noundef %build_opaque) #0 {
entry:
  %build_opaque.addr = alloca ptr, align 8
  %build_state = alloca ptr, align 8
  store ptr %build_opaque, ptr %build_opaque.addr, align 8
  %0 = load ptr, ptr %build_opaque.addr, align 8
  store ptr %0, ptr %build_state, align 8
  %1 = load ptr, ptr %build_state, align 8
  %patched = getelementptr inbounds %struct.AcpiBuildState, ptr %1, i32 0, i32 3
  store i8 0, ptr %patched, align 8
  ret void
}

; Function Attrs: nounwind sspstrong uwtable
define dso_local void @virt_acpi_setup(ptr noundef %s) #0 {
entry:
  %s.addr = alloca ptr, align 8
  %tables = alloca %struct.AcpiBuildTables, align 8
  %build_state = alloca ptr, align 8
  store ptr %s, ptr %s.addr, align 8
  %call = call noalias ptr @g_malloc0(i64 noundef 32) #7
  store ptr %call, ptr %build_state, align 8
  call void @acpi_build_tables_init(ptr noundef %tables)
  %0 = load ptr, ptr %s.addr, align 8
  call void @virt_acpi_build(ptr noundef %0, ptr noundef %tables)
  %1 = load ptr, ptr %build_state, align 8
  %table_data = getelementptr inbounds %struct.AcpiBuildTables, ptr %tables, i32 0, i32 0
  %2 = load ptr, ptr %table_data, align 8
  %call1 = call ptr @acpi_add_rom_blob(ptr noundef @virt_acpi_build_update, ptr noundef %1, ptr noundef %2, ptr noundef @.str)
  %3 = load ptr, ptr %build_state, align 8
  %table_mr = getelementptr inbounds %struct.AcpiBuildState, ptr %3, i32 0, i32 0
  store ptr %call1, ptr %table_mr, align 8
  %4 = load ptr, ptr %build_state, align 8
  %table_mr2 = getelementptr inbounds %struct.AcpiBuildState, ptr %4, i32 0, i32 0
  %5 = load ptr, ptr %table_mr2, align 8
  %cmp = icmp ne ptr %5, null
  br i1 %cmp, label %if.then, label %if.else

if.then:                                          ; preds = %entry
  br label %if.end

if.else:                                          ; preds = %entry
  call void @__assert_fail(ptr noundef @.str.1, ptr noundef @.str.2, i32 noundef 397, ptr noundef @__PRETTY_FUNCTION__.virt_acpi_setup) #8
  unreachable

if.end:                                           ; preds = %if.then
  %6 = load ptr, ptr %build_state, align 8
  %linker = getelementptr inbounds %struct.AcpiBuildTables, ptr %tables, i32 0, i32 5
  %7 = load ptr, ptr %linker, align 8
  %cmd_blob = getelementptr inbounds %struct.BIOSLinker, ptr %7, i32 0, i32 0
  %8 = load ptr, ptr %cmd_blob, align 8
  %call3 = call ptr @acpi_add_rom_blob(ptr noundef @virt_acpi_build_update, ptr noundef %6, ptr noundef %8, ptr noundef @.str.3)
  %9 = load ptr, ptr %build_state, align 8
  %linker_mr = getelementptr inbounds %struct.AcpiBuildState, ptr %9, i32 0, i32 2
  store ptr %call3, ptr %linker_mr, align 8
  %10 = load ptr, ptr %build_state, align 8
  %rsdp = getelementptr inbounds %struct.AcpiBuildTables, ptr %tables, i32 0, i32 1
  %11 = load ptr, ptr %rsdp, align 8
  %call4 = call ptr @acpi_add_rom_blob(ptr noundef @virt_acpi_build_update, ptr noundef %10, ptr noundef %11, ptr noundef @.str.4)
  %12 = load ptr, ptr %build_state, align 8
  %rsdp_mr = getelementptr inbounds %struct.AcpiBuildState, ptr %12, i32 0, i32 1
  store ptr %call4, ptr %rsdp_mr, align 8
  %13 = load ptr, ptr %build_state, align 8
  call void @qemu_register_reset(ptr noundef @virt_acpi_build_reset, ptr noundef %13)
  %14 = load ptr, ptr %build_state, align 8
  call void @virt_acpi_build_reset(ptr noundef %14)
  %15 = load ptr, ptr %build_state, align 8
  %call5 = call i32 @vmstate_register(ptr noundef null, i32 noundef 0, ptr noundef @vmstate_virt_acpi_build, ptr noundef %15)
  call void @acpi_build_tables_cleanup(ptr noundef %tables, i1 noundef zeroext false)
  ret void
}