; Function Attrs: nounwind sspstrong uwtable
define dso_local void @virt_acpi_setup(ptr noundef %s) local_unnamed_addr #0 {
entry:
  %tables = alloca %struct.AcpiBuildTables, align 8
  %call = tail call noalias dereferenceable_or_null(32) ptr @g_malloc0(i64 noundef 32) #9
  call void @acpi_build_tables_init(ptr noundef nonnull %tables) #10
  call fastcc void @virt_acpi_build(ptr noundef %s, ptr noundef %tables)
  %0 = load ptr, ptr %tables, align 8
  %call1 = call ptr @acpi_add_rom_blob(ptr noundef nonnull @virt_acpi_build_update, ptr noundef %call, ptr noundef %0, ptr noundef nonnull @.str) #10
  store ptr %call1, ptr %call, align 8
  %cmp.not = icmp eq ptr %call1, null
  br i1 %cmp.not, label %if.else, label %if.end

if.else:                                          ; preds = %entry
  call void @__assert_fail(ptr noundef nonnull @.str.1, ptr noundef nonnull @.str.2, i32 noundef 397, ptr noundef nonnull @__PRETTY_FUNCTION__.virt_acpi_setup) #11
  unreachable

if.end:                                           ; preds = %entry
  %linker = getelementptr inbounds nuw i8, ptr %tables, i64 40
  %1 = load ptr, ptr %linker, align 8
  %2 = load ptr, ptr %1, align 8
  %call3 = call ptr @acpi_add_rom_blob(ptr noundef nonnull @virt_acpi_build_update, ptr noundef nonnull %call, ptr noundef %2, ptr noundef nonnull @.str.3) #10
  %linker_mr = getelementptr inbounds nuw i8, ptr %call, i64 16
  store ptr %call3, ptr %linker_mr, align 8
  %rsdp = getelementptr inbounds nuw i8, ptr %tables, i64 8
  %3 = load ptr, ptr %rsdp, align 8
  %call4 = call ptr @acpi_add_rom_blob(ptr noundef nonnull @virt_acpi_build_update, ptr noundef nonnull %call, ptr noundef %3, ptr noundef nonnull @.str.4) #10
  %rsdp_mr = getelementptr inbounds nuw i8, ptr %call, i64 8
  store ptr %call4, ptr %rsdp_mr, align 8
  call void @qemu_register_reset(ptr noundef nonnull @virt_acpi_build_reset, ptr noundef nonnull %call) #10
  %patched.i = getelementptr inbounds nuw i8, ptr %call, i64 24
  store i8 0, ptr %patched.i, align 8
  %call.i = call i32 @vmstate_register_with_alias_id(ptr noundef null, i32 noundef 0, ptr noundef nonnull @vmstate_virt_acpi_build, ptr noundef nonnull %call, i32 noundef -1, i32 noundef 0, ptr noundef null) #10
  call void @acpi_build_tables_cleanup(ptr noundef nonnull %tables, i1 noundef zeroext false) #10
  ret void
}